target datalayout = "e-m:e-p270:32:32-p271:32:32-p272:64:64-i64:64-i128:128-f80:128-n8:16:32:64-S128"
target triple = "x86_64-pc-linux-gnu"

@.str.123 = private unnamed_addr constant [15 x i8] c"preserve-upper\00", align 1

; Function Attrs: nounwind uwtable
define internal ptr @comp_keyword_case_substitute_hook(ptr noundef %0) #0 {
  %2 = alloca ptr, align 8
  store ptr %0, ptr %2, align 8
  %3 = load ptr, ptr %2, align 8
  %4 = icmp eq ptr %3, null
  br i1 %4, label %5, label %7

5:                                                ; preds = %1
  %6 = call ptr @pg_strdup(ptr noundef @.str.123)
  store ptr %6, ptr %2, align 8
  br label %7

7:                                                ; preds = %5, %1
  %8 = load ptr, ptr %2, align 8
  ret ptr %8
}