; Function Attrs: nounwind uwtable
define internal ptr @comp_keyword_case_substitute_hook(ptr noundef readnone captures(address_is_null, ret: address, provenance) %0) #0 {
  %2 = icmp eq ptr %0, null
  br i1 %2, label %3, label %5

3:                                                ; preds = %1
  %4 = tail call ptr @pg_strdup(ptr noundef nonnull @.str.123) #15
  br label %5

5:                                                ; preds = %3, %1
  %.0 = phi ptr [ %4, %3 ], [ %0, %1 ]
  ret ptr %.0
}